; Function Attrs: mustprogress uwtable
define dso_local noundef zeroext i1 @_ZN17cmQtAutoGenerator9FileWriteERKNSt7__cxx1112basic_stringIcSt11char_traitsIcESaIcEEES7_PS5_(ptr noundef nonnull align 8 dereferenceable(32) %0, ptr noundef nonnull align 8 dereferenceable(32) %1, ptr noundef %2) local_unnamed_addr #3 align 2 personality ptr @__gxx_personality_v0 {
  %4 = alloca %"class.std::__cxx11::basic_string", align 8
  %5 = alloca %"class.std::basic_ofstream", align 8
  call void @llvm.lifetime.start.p0(i64 32, ptr nonnull %4)
  call void @_ZN5cmsys11SystemTools15GetFilenamePathERKNSt7__cxx1112basic_stringIcSt11char_traitsIcESaIcEEE(ptr dead_on_unwind nonnull writable sret(%"class.std::__cxx11::basic_string") align 8 %4, ptr noundef nonnull align 8 dereferenceable(32) %0)
  %6 = call noundef zeroext i1 @_ZNKSt7__cxx1112basic_stringIcSt11char_traitsIcESaIcEE5emptyEv(ptr noundef nonnull align 8 dereferenceable(32) %4) #21
  br i1 %6, label %_ZN17cmQtAutoGenerator19MakeParentDirectoryERKNSt7__cxx1112basic_stringIcSt11char_traitsIcESaIcEEE.exit.thread, label %7

_ZN17cmQtAutoGenerator19MakeParentDirectoryERKNSt7__cxx1112basic_stringIcSt11char_traitsIcESaIcEEE.exit.thread: ; preds = %3
  call void @_ZNSt7__cxx1112basic_stringIcSt11char_traitsIcESaIcEED1Ev(ptr noundef nonnull align 8 dereferenceable(32) %4) #21
  call void @llvm.lifetime.end.p0(i64 32, ptr nonnull %4)
  br label %16

7:                                                ; preds = %3
  %8 = invoke i64 @_ZN5cmsys11SystemTools13MakeDirectoryERKNSt7__cxx1112basic_stringIcSt11char_traitsIcESaIcEEEPKj(ptr noundef nonnull align 8 dereferenceable(32) %4, ptr noundef null)
          to label %_ZN17cmQtAutoGenerator19MakeParentDirectoryERKNSt7__cxx1112basic_stringIcSt11char_traitsIcESaIcEEE.exit unwind label %9

common.resume:                                    ; preds = %35, %9
  %common.resume.op = phi { ptr, i32 } [ %10, %9 ], [ %36, %35 ]
  resume { ptr, i32 } %common.resume.op

9:                                                ; preds = %7
  %10 = landingpad { ptr, i32 }
          cleanup
  call void @_ZNSt7__cxx1112basic_stringIcSt11char_traitsIcESaIcEED1Ev(ptr noundef nonnull align 8 dereferenceable(32) %4) #21
  br label %common.resume

_ZN17cmQtAutoGenerator19MakeParentDirectoryERKNSt7__cxx1112basic_stringIcSt11char_traitsIcESaIcEEE.exit: ; preds = %7
  %11 = and i64 %8, 4294967295
  %12 = icmp eq i64 %11, 0
  call void @_ZNSt7__cxx1112basic_stringIcSt11char_traitsIcESaIcEED1Ev(ptr noundef nonnull align 8 dereferenceable(32) %4) #21
  call void @llvm.lifetime.end.p0(i64 32, ptr nonnull %4)
  br i1 %12, label %16, label %13

13:                                               ; preds = %_ZN17cmQtAutoGenerator19MakeParentDirectoryERKNSt7__cxx1112basic_stringIcSt11char_traitsIcESaIcEEE.exit
  %.not = icmp eq ptr %2, null
  br i1 %.not, label %37, label %14

14:                                               ; preds = %13
  %15 = call noundef nonnull align 8 dereferenceable(32) ptr @_ZNSt7__cxx1112basic_stringIcSt11char_traitsIcESaIcEEaSEPKc(ptr noundef nonnull align 8 dereferenceable(32) %2, ptr noundef nonnull @.str.13)
  br label %37

16:                                               ; preds = %_ZN17cmQtAutoGenerator19MakeParentDirectoryERKNSt7__cxx1112basic_stringIcSt11char_traitsIcESaIcEEE.exit.thread, %_ZN17cmQtAutoGenerator19MakeParentDirectoryERKNSt7__cxx1112basic_stringIcSt11char_traitsIcESaIcEEE.exit
  call void @_ZNSt14basic_ofstreamIcSt11char_traitsIcEEC1Ev(ptr noundef nonnull align 8 dereferenceable(248) %5)
  %17 = call noundef ptr @_ZNKSt7__cxx1112basic_stringIcSt11char_traitsIcESaIcEE5c_strEv(ptr noundef nonnull align 8 dereferenceable(32) %0) #21
  invoke void @_ZNSt14basic_ofstreamIcSt11char_traitsIcEE4openEPKcSt13_Ios_Openmode(ptr noundef nonnull align 8 dereferenceable(248) %5, ptr noundef %17, i32 noundef 52)
          to label %18 unwind label %35

18:                                               ; preds = %16
  %19 = load ptr, ptr %5, align 8
  %20 = getelementptr i8, ptr %19, i64 -24
  %21 = load i64, ptr %20, align 8
  %22 = getelementptr inbounds i8, ptr %5, i64 %21
  %23 = invoke noundef zeroext i1 @_ZNKSt9basic_iosIcSt11char_traitsIcEEntEv(ptr noundef nonnull align 8 dereferenceable(264) %22)
          to label %.noexc unwind label %35

.noexc:                                           ; preds = %18
  br i1 %23, label %24, label %25

24:                                               ; preds = %.noexc
  %.not4.i = icmp eq ptr %2, null
  br i1 %.not4.i, label %"_ZZN17cmQtAutoGenerator9FileWriteERKNSt7__cxx1112basic_stringIcSt11char_traitsIcESaIcEEES7_PS5_ENK3$_0clEv.exit", label %.invoke

25:                                               ; preds = %.noexc
  %26 = invoke noundef nonnull align 8 dereferenceable(8) ptr @_ZStlsIcSt11char_traitsIcESaIcEERSt13basic_ostreamIT_T0_ES7_RKNSt7__cxx1112basic_stringIS4_S5_T1_EE(ptr noundef nonnull align 8 dereferenceable(8) %5, ptr noundef nonnull align 8 dereferenceable(32) %1)
          to label %.noexc11 unwind label %35

.noexc11:                                         ; preds = %25
  %27 = load ptr, ptr %5, align 8
  %28 = getelementptr i8, ptr %27, i64 -24
  %29 = load i64, ptr %28, align 8
  %30 = getelementptr inbounds i8, ptr %5, i64 %29
  %31 = invoke noundef zeroext i1 @_ZNKSt9basic_iosIcSt11char_traitsIcEE4goodEv(ptr noundef nonnull align 8 dereferenceable(264) %30)
          to label %.noexc12 unwind label %35

.noexc12:                                         ; preds = %.noexc11
  br i1 %31, label %"_ZZN17cmQtAutoGenerator9FileWriteERKNSt7__cxx1112basic_stringIcSt11char_traitsIcESaIcEEES7_PS5_ENK3$_0clEv.exit", label %32

32:                                               ; preds = %.noexc12
  %.not.i = icmp eq ptr %2, null
  br i1 %.not.i, label %"_ZZN17cmQtAutoGenerator9FileWriteERKNSt7__cxx1112basic_stringIcSt11char_traitsIcESaIcEEES7_PS5_ENK3$_0clEv.exit", label %.invoke

.invoke:                                          ; preds = %32, %24
  %33 = phi ptr [ @.str.35, %24 ], [ @.str.36, %32 ]
  %34 = invoke noundef nonnull align 8 dereferenceable(32) ptr @_ZNSt7__cxx1112basic_stringIcSt11char_traitsIcESaIcEEaSEPKc(ptr noundef nonnull align 8 dereferenceable(32) %2, ptr noundef nonnull %33)
          to label %"_ZZN17cmQtAutoGenerator9FileWriteERKNSt7__cxx1112basic_stringIcSt11char_traitsIcESaIcEEES7_PS5_ENK3$_0clEv.exit" unwind label %35

"_ZZN17cmQtAutoGenerator9FileWriteERKNSt7__cxx1112basic_stringIcSt11char_traitsIcESaIcEEES7_PS5_ENK3$_0clEv.exit": ; preds = %.invoke, %32, %.noexc12, %24
  %.0.i9 = phi i1 [ false, %24 ], [ false, %32 ], [ true, %.noexc12 ], [ false, %.invoke ]
  call void @_ZNSt14basic_ofstreamIcSt11char_traitsIcEED1Ev(ptr noundef nonnull align 8 dereferenceable(248) %5) #21
  br label %37

35:                                               ; preds = %.invoke, %.noexc11, %25, %18, %16
  %36 = landingpad { ptr, i32 }
          cleanup
  call void @_ZNSt14basic_ofstreamIcSt11char_traitsIcEED1Ev(ptr noundef nonnull align 8 dereferenceable(248) %5) #21
  br label %common.resume

37:                                               ; preds = %13, %14, %"_ZZN17cmQtAutoGenerator9FileWriteERKNSt7__cxx1112basic_stringIcSt11char_traitsIcESaIcEEES7_PS5_ENK3$_0clEv.exit"
  %.0 = phi i1 [ %.0.i9, %"_ZZN17cmQtAutoGenerator9FileWriteERKNSt7__cxx1112basic_stringIcSt11char_traitsIcESaIcEEES7_PS5_ENK3$_0clEv.exit" ], [ false, %14 ], [ false, %13 ]
  ret i1 %.0
}